; Function Attrs: nounwind uwtable
define i32 @Abc_ObjExpandCubesTry(ptr noundef readonly captures(none) %0, ptr noundef %1, ptr noundef readonly captures(none) %2) local_unnamed_addr #0 {
  %4 = getelementptr i8, ptr %0, i64 8
  %.val = load ptr, ptr %4, align 8
  %5 = tail call i32 @Abc_SopGetCubeNum(ptr noundef %.val) #6
  %6 = tail call i32 @Abc_SopGetVarNum(ptr noundef %.val) #6
  %7 = tail call noalias dereferenceable_or_null(16) ptr @malloc(i64 noundef 16) #7
  %8 = add i32 %6, -1
  %or.cond.i = icmp ult i32 %8, 15
  %spec.store.select.i = select i1 %or.cond.i, i32 16, i32 %6
  %9 = getelementptr inbounds nuw i8, ptr %7, i64 4
  store i32 0, ptr %9, align 4
  store i32 %spec.store.select.i, ptr %7, align 8
  %.not.i = icmp eq i32 %spec.store.select.i, 0
  br i1 %.not.i, label %Vec_IntAlloc.exit, label %10

10:                                               ; preds = %3
  %11 = sext i32 %spec.store.select.i to i64
  %12 = shl nsw i64 %11, 2
  %13 = tail call noalias ptr @malloc(i64 noundef %12) #7
  br label %Vec_IntAlloc.exit

Vec_IntAlloc.exit:                                ; preds = %3, %10
  %14 = phi ptr [ %13, %10 ], [ null, %3 ]
  %15 = getelementptr inbounds nuw i8, ptr %7, i64 8
  store ptr %14, ptr %15, align 8
  %16 = tail call noalias dereferenceable_or_null(16) ptr @malloc(i64 noundef 16) #7
  %17 = getelementptr inbounds nuw i8, ptr %16, i64 4
  store i32 0, ptr %17, align 4
  store i32 %spec.store.select.i, ptr %16, align 8
  br i1 %.not.i, label %Vec_IntAlloc.exit49, label %18

18:                                               ; preds = %Vec_IntAlloc.exit
  %19 = sext i32 %spec.store.select.i to i64
  %20 = shl nsw i64 %19, 2
  %21 = tail call noalias ptr @malloc(i64 noundef %20) #7
  br label %Vec_IntAlloc.exit49

Vec_IntAlloc.exit49:                              ; preds = %Vec_IntAlloc.exit, %18
  %22 = phi ptr [ %21, %18 ], [ null, %Vec_IntAlloc.exit ]
  %23 = getelementptr inbounds nuw i8, ptr %16, i64 8
  store ptr %22, ptr %23, align 8
  %24 = load i8, ptr %.val, align 1
  %.not58 = icmp eq i8 %24, 0
  br i1 %.not58, label %._crit_edge61, label %.lr.ph60

.lr.ph60:                                         ; preds = %Vec_IntAlloc.exit49
  %25 = sext i32 %6 to i64
  %26 = shl nsw i64 %25, 2
  %27 = icmp sgt i32 %6, 0
  %wide.trip.count.i = zext i32 %6 to i64
  %28 = getelementptr i8, ptr %2, i64 8
  br label %29

29:                                               ; preds = %.lr.ph60, %.critedge
  %.059 = phi ptr [ %.val, %.lr.ph60 ], [ %66, %.critedge ]
  %30 = load i32, ptr %7, align 8
  %.not.i.i = icmp slt i32 %30, %6
  br i1 %.not.i.i, label %31, label %Vec_IntGrow.exit.i

31:                                               ; preds = %29
  %32 = load ptr, ptr %15, align 8
  %.not9.i.i = icmp eq ptr %32, null
  br i1 %.not9.i.i, label %35, label %33

33:                                               ; preds = %31
  %34 = tail call ptr @realloc(ptr noundef nonnull %32, i64 noundef %26) #8
  br label %37

35:                                               ; preds = %31
  %36 = tail call noalias ptr @malloc(i64 noundef %26) #7
  br label %37

37:                                               ; preds = %35, %33
  %38 = phi ptr [ %34, %33 ], [ %36, %35 ]
  store ptr %38, ptr %15, align 8
  store i32 %6, ptr %7, align 8
  br label %Vec_IntGrow.exit.i

Vec_IntGrow.exit.i:                               ; preds = %37, %29
  br i1 %27, label %.lr.ph.i, label %Vec_IntFill.exit.thread

Vec_IntFill.exit.thread:                          ; preds = %Vec_IntGrow.exit.i
  store i32 %6, ptr %9, align 4
  br label %._crit_edge

.lr.ph.i:                                         ; preds = %Vec_IntGrow.exit.i, %.lr.ph.i
  %indvars.iv.i = phi i64 [ %indvars.iv.next.i, %.lr.ph.i ], [ 0, %Vec_IntGrow.exit.i ]
  %39 = load ptr, ptr %15, align 8
  %40 = getelementptr inbounds nuw i32, ptr %39, i64 %indvars.iv.i
  store i32 -1, ptr %40, align 4
  %indvars.iv.next.i = add nuw nsw i64 %indvars.iv.i, 1
  %exitcond.not.i = icmp eq i64 %indvars.iv.next.i, %wide.trip.count.i
  br i1 %exitcond.not.i, label %Vec_IntFill.exit, label %.lr.ph.i, !llvm.loop !4

Vec_IntFill.exit:                                 ; preds = %.lr.ph.i
  store i32 %6, ptr %9, align 4
  br label %.lr.ph

.lr.ph:                                           ; preds = %Vec_IntFill.exit, %52
  %indvars.iv = phi i64 [ %indvars.iv.next, %52 ], [ 0, %Vec_IntFill.exit ]
  %41 = getelementptr inbounds nuw i8, ptr %.059, i64 %indvars.iv
  %42 = load i8, ptr %41, align 1
  %43 = icmp eq i8 %42, 45
  br i1 %43, label %52, label %44

44:                                               ; preds = %.lr.ph
  %.val42 = load ptr, ptr %28, align 8
  %45 = getelementptr inbounds nuw i32, ptr %.val42, i64 %indvars.iv
  %46 = load i32, ptr %45, align 4
  %47 = icmp eq i8 %42, 48
  %48 = zext i1 %47 to i32
  %49 = shl nsw i32 %46, 1
  %50 = or disjoint i32 %49, %48
  %.val44 = load ptr, ptr %15, align 8
  %51 = getelementptr inbounds nuw i32, ptr %.val44, i64 %indvars.iv
  store i32 %50, ptr %51, align 4
  store i8 45, ptr %41, align 1
  br label %52

52:                                               ; preds = %.lr.ph, %44
  %indvars.iv.next = add nuw nsw i64 %indvars.iv, 1
  %exitcond.not = icmp eq i64 %indvars.iv.next, %wide.trip.count.i
  br i1 %exitcond.not, label %._crit_edge, label %.lr.ph, !llvm.loop !6

._crit_edge:                                      ; preds = %52, %Vec_IntFill.exit.thread
  %53 = tail call i32 @Bmc_CollapseExpandRound(ptr noundef %1, ptr noundef null, ptr noundef nonnull %7, ptr noundef null, ptr noundef nonnull %16, i32 noundef 0, i32 noundef 0, i32 noundef -1) #6
  %.val4554 = load i32, ptr %9, align 4
  %54 = icmp sgt i32 %.val4554, 0
  br i1 %54, label %.lr.ph57.preheader, label %.critedge

.lr.ph57.preheader:                               ; preds = %._crit_edge
  %.val43.pre = load ptr, ptr %15, align 8
  %55 = zext nneg i32 %.val4554 to i64
  br label %.lr.ph57

.lr.ph57:                                         ; preds = %.lr.ph57.preheader, %63
  %indvars.iv63 = phi i64 [ 0, %.lr.ph57.preheader ], [ %indvars.iv.next64, %63 ]
  %56 = getelementptr inbounds nuw i32, ptr %.val43.pre, i64 %indvars.iv63
  %57 = load i32, ptr %56, align 4
  %.not41 = icmp eq i32 %57, -1
  br i1 %.not41, label %63, label %58

58:                                               ; preds = %.lr.ph57
  %59 = trunc i32 %57 to i8
  %60 = and i8 %59, 1
  %61 = sub nuw nsw i8 49, %60
  %62 = getelementptr inbounds nuw i8, ptr %.059, i64 %indvars.iv63
  store i8 %61, ptr %62, align 1
  br label %63

63:                                               ; preds = %.lr.ph57, %58
  %indvars.iv.next64 = add nuw nsw i64 %indvars.iv63, 1
  %64 = icmp samesign ult i64 %indvars.iv.next64, %55
  br i1 %64, label %.lr.ph57, label %.critedge, !llvm.loop !7

.critedge:                                        ; preds = %63, %._crit_edge
  %65 = getelementptr i8, ptr %.059, i64 %25
  %66 = getelementptr i8, ptr %65, i64 3
  %67 = load i8, ptr %66, align 1
  %.not = icmp eq i8 %67, 0
  br i1 %.not, label %._crit_edge61.loopexit, label %29, !llvm.loop !8

._crit_edge61.loopexit:                           ; preds = %.critedge
  %.pre = load ptr, ptr %15, align 8
  br label %._crit_edge61

._crit_edge61:                                    ; preds = %._crit_edge61.loopexit, %Vec_IntAlloc.exit49
  %68 = phi ptr [ %.pre, %._crit_edge61.loopexit ], [ %14, %Vec_IntAlloc.exit49 ]
  %.not.i50 = icmp eq ptr %68, null
  br i1 %.not.i50, label %Vec_IntFree.exit, label %69

69:                                               ; preds = %._crit_edge61
  tail call void @free(ptr noundef nonnull %68) #6
  br label %Vec_IntFree.exit

Vec_IntFree.exit:                                 ; preds = %._crit_edge61, %69
  tail call void @free(ptr noundef nonnull %7) #6
  %70 = load ptr, ptr %23, align 8
  %.not.i51 = icmp eq ptr %70, null
  br i1 %.not.i51, label %Vec_IntFree.exit52, label %71

71:                                               ; preds = %Vec_IntFree.exit
  tail call void @free(ptr noundef nonnull %70) #6
  br label %Vec_IntFree.exit52

Vec_IntFree.exit52:                               ; preds = %Vec_IntFree.exit, %71
  tail call void @free(ptr noundef nonnull %16) #6
  ret i32 %5
}